; ModuleID = 'source-C-CXX/22/68.c'
source_filename = "source-C-CXX/22/68.c"
target datalayout = "e-m:e-p270:32:32-p271:32:32-p272:64:64-i64:64-f80:128-n8:16:32:64-S128"
target triple = "x86_64-pc-linux-gnu"

@.str = private unnamed_addr constant [3 x i8] c"%s\00", align 1
@.str.1 = private unnamed_addr constant [4 x i8] c"%s \00", align 1

; Function Attrs: nofree nounwind sspstrong uwtable
define dso_local i32 @main() local_unnamed_addr #0 {
  %1 = alloca [100 x [50 x i8]], align 16
  %2 = getelementptr inbounds [100 x [50 x i8]], [100 x [50 x i8]]* %1, i64 0, i64 0, i64 0
  call void @llvm.lifetime.start.p0i8(i64 5000, i8* nonnull %2) #3
  br label %3

3:                                                ; preds = %0, %10
  %4 = phi i64 [ 0, %0 ], [ %11, %10 ]
  %5 = getelementptr inbounds [100 x [50 x i8]], [100 x [50 x i8]]* %1, i64 0, i64 %4, i64 0
  %6 = call i32 (i8*, ...) @__isoc99_scanf(i8* getelementptr inbounds ([3 x i8], [3 x i8]* @.str, i64 0, i64 0), i8* nonnull %5)
  %7 = load i8, i8* %5, align 2, !tbaa !5
  %8 = add i8 %7, -65
  %9 = icmp ugt i8 %8, 57
  br i1 %9, label %13, label %10

10:                                               ; preds = %3
  %11 = add nuw nsw i64 %4, 1
  %12 = icmp eq i64 %11, 50
  br i1 %12, label %16, label %3, !llvm.loop !8

13:                                               ; preds = %3
  %14 = trunc i64 %4 to i32
  %15 = icmp sgt i32 %14, 1
  br i1 %15, label %16, label %25

16:                                               ; preds = %10, %13
  %17 = phi i64 [ %4, %13 ], [ 50, %10 ]
  %18 = and i64 %17, 4294967295
  br label %19

19:                                               ; preds = %16, %19
  %20 = phi i64 [ %18, %16 ], [ %21, %19 ]
  %21 = add nsw i64 %20, -1
  %22 = getelementptr inbounds [100 x [50 x i8]], [100 x [50 x i8]]* %1, i64 0, i64 %21, i64 0
  %23 = call i32 (i8*, ...) @printf(i8* nonnull dereferenceable(1) getelementptr inbounds ([4 x i8], [4 x i8]* @.str.1, i64 0, i64 0), i8* nonnull %22)
  %24 = icmp sgt i64 %20, 2
  br i1 %24, label %19, label %25, !llvm.loop !10

25:                                               ; preds = %19, %13
  %26 = call i32 (i8*, ...) @printf(i8* nonnull dereferenceable(1) getelementptr inbounds ([3 x i8], [3 x i8]* @.str, i64 0, i64 0), i8* nonnull %2)
  call void @llvm.lifetime.end.p0i8(i64 5000, i8* nonnull %2) #3
  ret i32 0
}

; Function Attrs: argmemonly mustprogress nofree nosync nounwind willreturn
declare void @llvm.lifetime.start.p0i8(i64 immarg, i8* nocapture) #1

; Function Attrs: nofree nounwind
declare noundef i32 @__isoc99_scanf(i8* nocapture noundef readonly, ...) local_unnamed_addr #2

; Function Attrs: nofree nounwind
declare noundef i32 @printf(i8* nocapture noundef readonly, ...) local_unnamed_addr #2

; Function Attrs: argmemonly mustprogress nofree nosync nounwind willreturn
declare void @llvm.lifetime.end.p0i8(i64 immarg, i8* nocapture) #1


!llvm.module.flags = !{!0, !1, !2, !3}
!llvm.ident = !{!4}

!0 = !{i32 1, !"wchar_size", i32 4}
!1 = !{i32 7, !"PIC Level", i32 2}
!2 = !{i32 7, !"PIE Level", i32 2}
!3 = !{i32 7, !"uwtable", i32 1}
!4 = !{!"clang version 13.0.0"}
!5 = !{!6, !6, i64 0}
!6 = !{!"omnipotent char", !7, i64 0}
!7 = !{!"Simple C/C++ TBAA"}
!8 = distinct !{!8, !9}
!9 = !{!"llvm.loop.mustprogress"}
!10 = distinct !{!10, !9}
